; Function Attrs: nounwind uwtable
define ptr @l_Array_forIn_x27Unsafe_loop___at_Std_Tactic_BVDecide_LRAT_Internal_DefaultFormula_numClausesInFormula___spec__2(ptr readnone captures(none) %0, ptr readnone captures(none) %1, ptr readnone captures(none) %2, ptr noundef readonly captures(none) %3, i64 noundef %4, i64 noundef %5, ptr noundef %6) local_unnamed_addr #1 {
  %.not49 = icmp ult i64 %5, %4
  br i1 %.not49, label %.lr.ph, label %._crit_edge

.lr.ph:                                           ; preds = %7
  %8 = getelementptr inbounds nuw i8, ptr %3, i64 24
  br label %9

9:                                                ; preds = %.lr.ph, %lean_dec.exit
  %.02251 = phi i64 [ %5, %.lr.ph ], [ %.123, %lean_dec.exit ]
  %.02450 = phi ptr [ %6, %.lr.ph ], [ %.125, %lean_dec.exit ]
  %10 = getelementptr inbounds nuw [0 x ptr], ptr %8, i64 0, i64 %.02251
  %11 = load ptr, ptr %10, align 8, !tbaa !9
  %12 = ptrtoint ptr %11 to i64
  %13 = and i64 %12, 1
  %.not.i32 = icmp eq i64 %13, 0
  br i1 %.not.i32, label %14, label %lean_obj_tag.exit.i

14:                                               ; preds = %9
  %.val.i.i = load i32, ptr %11, align 4, !tbaa !4
  %15 = icmp sgt i32 %.val.i.i, 0
  br i1 %15, label %16, label %18, !prof !11

16:                                               ; preds = %14
  %17 = add nuw i32 %.val.i.i, 1
  store i32 %17, ptr %11, align 4, !tbaa !4
  br label %22

18:                                               ; preds = %14
  %.not.i.i = icmp eq i32 %.val.i.i, 0
  br i1 %.not.i.i, label %.thread59, label %20

.thread59:                                        ; preds = %18
  %19 = getelementptr i8, ptr %11, i64 4
  %.val.i.i3556 = load i32, ptr %19, align 4
  %.not475357 = icmp ult i32 %.val.i.i3556, 16777216
  br i1 %.not475357, label %lean_dec.exit, label %30

20:                                               ; preds = %18
  tail call void @lean_inc_ref_cold(ptr noundef nonnull %11) #5
  %.pr = load i32, ptr %11, align 4, !tbaa !4
  br label %22

lean_obj_tag.exit.i:                              ; preds = %9
  %21 = and i64 %12, 8589934590
  %.not47 = icmp eq i64 %21, 0
  br i1 %.not47, label %lean_dec.exit, label %30

22:                                               ; preds = %20, %16
  %23 = phi i32 [ %.pr, %20 ], [ %17, %16 ]
  %24 = getelementptr i8, ptr %11, i64 4
  %.val.i.i35 = load i32, ptr %24, align 4
  %.not4753 = icmp ult i32 %.val.i.i35, 16777216
  %25 = icmp sgt i32 %23, 1
  br i1 %25, label %26, label %28, !prof !15

26:                                               ; preds = %22
  %27 = add nsw i32 %23, -1
  store i32 %27, ptr %11, align 4, !tbaa !4
  br i1 %.not4753, label %lean_dec.exit, label %30

28:                                               ; preds = %22
  %.not.i = icmp eq i32 %23, 0
  br i1 %.not.i, label %lean_dec.exit29, label %29

29:                                               ; preds = %28
  tail call void @lean_dec_ref_cold(ptr noundef nonnull %11) #5
  br i1 %.not4753, label %lean_dec.exit, label %30

lean_dec.exit29:                                  ; preds = %28
  br i1 %.not4753, label %lean_dec.exit, label %30

30:                                               ; preds = %.thread59, %lean_obj_tag.exit.i, %26, %29, %lean_dec.exit29
  %31 = ptrtoint ptr %.02450 to i64
  %32 = and i64 %31, 1
  %.not48 = icmp eq i64 %32, 0
  br i1 %.not48, label %43, label %33, !prof !14

33:                                               ; preds = %30
  %34 = lshr i64 %31, 1
  %35 = add nuw i64 %34, 1
  %36 = icmp sgt i64 %35, -1
  br i1 %36, label %37, label %41, !prof !11

37:                                               ; preds = %33
  %38 = shl nuw i64 %35, 1
  %39 = or disjoint i64 %38, 1
  %40 = inttoptr i64 %39 to ptr
  br label %lean_dec.exit

41:                                               ; preds = %33
  %42 = tail call ptr @lean_big_usize_to_nat(i64 noundef range(i64 0, -1) %35) #5
  br label %lean_dec.exit

43:                                               ; preds = %30
  %44 = tail call ptr @lean_nat_big_add(ptr noundef %.02450, ptr noundef nonnull inttoptr (i64 3 to ptr)) #5
  %45 = load i32, ptr %.02450, align 4, !tbaa !4
  %46 = icmp sgt i32 %45, 1
  br i1 %46, label %47, label %49, !prof !11

47:                                               ; preds = %43
  %48 = add nsw i32 %45, -1
  store i32 %48, ptr %.02450, align 4, !tbaa !4
  br label %lean_dec.exit

49:                                               ; preds = %43
  %.not.i30 = icmp eq i32 %45, 0
  br i1 %.not.i30, label %lean_dec.exit, label %50

50:                                               ; preds = %49
  tail call void @lean_dec_ref_cold(ptr noundef nonnull %.02450) #5
  br label %lean_dec.exit

lean_dec.exit:                                    ; preds = %.thread59, %lean_obj_tag.exit.i, %26, %29, %lean_dec.exit29, %47, %49, %50, %41, %37
  %.125 = phi ptr [ %44, %47 ], [ %44, %49 ], [ %44, %50 ], [ %42, %41 ], [ %40, %37 ], [ %.02450, %lean_dec.exit29 ], [ %.02450, %29 ], [ %.02450, %26 ], [ %.02450, %lean_obj_tag.exit.i ], [ %.02450, %.thread59 ]
  %.123 = add nuw i64 %.02251, 1
  %exitcond.not = icmp eq i64 %.123, %4
  br i1 %exitcond.not, label %._crit_edge, label %9

._crit_edge:                                      ; preds = %lean_dec.exit, %7
  %.024.lcssa = phi ptr [ %6, %7 ], [ %.125, %lean_dec.exit ]
  ret ptr %.024.lcssa
}